target datalayout = "e-m:e-p270:32:32-p271:32:32-p272:64:64-i64:64-i128:128-f80:128-n8:16:32:64-S128"
target triple = "x86_64-pc-linux-gnu"

; Function Attrs: mustprogress nounwind uwtable
define internal noundef i32 @_ZN12_GLOBAL__N_110getVersionEPKvia(ptr noundef %0, i32 noundef %1, i8 noundef signext %2) #5 {
  %4 = alloca i32, align 4
  %5 = alloca ptr, align 8
  %6 = alloca i32, align 4
  %7 = alloca i8, align 1
  %8 = alloca i32, align 4
  %9 = alloca i32, align 4
  store ptr %0, ptr %5, align 8, !tbaa !8
  store i32 %1, ptr %6, align 4, !tbaa !9
  store i8 %2, ptr %7, align 1, !tbaa !22
  call void @llvm.lifetime.start.p0(i64 4, ptr %8) #6
  %10 = load i32, ptr %6, align 4, !tbaa !9
  %11 = icmp slt i32 %10, 16
  br i1 %11, label %20, label %12

12:                                               ; preds = %3
  %13 = load ptr, ptr %5, align 8, !tbaa !8
  %14 = icmp eq ptr %13, null
  br i1 %14, label %20, label %15

15:                                               ; preds = %12
  %16 = load ptr, ptr %5, align 8, !tbaa !8
  %17 = ptrtoint ptr %16 to i64
  %18 = and i64 %17, 3
  %19 = icmp ne i64 %18, 0
  br i1 %19, label %20, label %21

20:                                               ; preds = %15, %12, %3
  store i32 0, ptr %4, align 4
  store i32 1, ptr %9, align 4
  br label %57

21:                                               ; preds = %15
  %22 = load ptr, ptr %5, align 8, !tbaa !8
  %23 = load i32, ptr %22, align 4, !tbaa !9
  store i32 %23, ptr %8, align 4, !tbaa !9
  %24 = load i32, ptr %8, align 4, !tbaa !9
  %25 = icmp eq i32 %24, 1416784179
  br i1 %25, label %26, label %27

26:                                               ; preds = %21
  store i32 3, ptr %4, align 4
  store i32 1, ptr %9, align 4
  br label %57

27:                                               ; preds = %21
  %28 = load i8, ptr %7, align 1, !tbaa !22
  %29 = icmp ne i8 %28, 0
  br i1 %29, label %30, label %34

30:                                               ; preds = %27
  %31 = load i32, ptr %8, align 4, !tbaa !9
  %32 = icmp eq i32 %31, 862548564
  br i1 %32, label %33, label %34

33:                                               ; preds = %30
  store i32 3, ptr %4, align 4
  store i32 1, ptr %9, align 4
  br label %57

34:                                               ; preds = %30, %27
  %35 = load i32, ptr %8, align 4, !tbaa !9
  %36 = icmp eq i32 %35, 1416784178
  br i1 %36, label %37, label %38

37:                                               ; preds = %34
  store i32 2, ptr %4, align 4
  store i32 1, ptr %9, align 4
  br label %57

38:                                               ; preds = %34
  %39 = load i8, ptr %7, align 1, !tbaa !22
  %40 = icmp ne i8 %39, 0
  br i1 %40, label %41, label %45

41:                                               ; preds = %38
  %42 = load i32, ptr %8, align 4, !tbaa !9
  %43 = icmp eq i32 %42, 845771348
  br i1 %43, label %44, label %45

44:                                               ; preds = %41
  store i32 2, ptr %4, align 4
  store i32 1, ptr %9, align 4
  br label %57

45:                                               ; preds = %41, %38
  %46 = load i32, ptr %8, align 4, !tbaa !9
  %47 = icmp eq i32 %46, 1416784229
  br i1 %47, label %48, label %49

48:                                               ; preds = %45
  store i32 1, ptr %4, align 4
  store i32 1, ptr %9, align 4
  br label %57

49:                                               ; preds = %45
  %50 = load i8, ptr %7, align 1, !tbaa !22
  %51 = icmp ne i8 %50, 0
  br i1 %51, label %52, label %56

52:                                               ; preds = %49
  %53 = load i32, ptr %8, align 4, !tbaa !9
  %54 = icmp eq i32 %53, 1701409364
  br i1 %54, label %55, label %56

55:                                               ; preds = %52
  store i32 1, ptr %4, align 4
  store i32 1, ptr %9, align 4
  br label %57

56:                                               ; preds = %52, %49
  store i32 0, ptr %4, align 4
  store i32 1, ptr %9, align 4
  br label %57

57:                                               ; preds = %56, %55, %48, %44, %37, %33, %26, %20
  call void @llvm.lifetime.end.p0(i64 4, ptr %8) #6
  %58 = load i32, ptr %4, align 4
  ret i32 %58
}

; Function Attrs: inlinehint mustprogress nounwind uwtable
define internal noundef signext i8 @_ZL9U_FAILURE10UErrorCode(i32 noundef %0) #2 {
  %2 = alloca i32, align 4
  store i32 %0, ptr %2, align 4, !tbaa !11
  %3 = load i32, ptr %2, align 4, !tbaa !11
  %4 = icmp sgt i32 %3, 0
  %5 = zext i1 %4 to i8
  ret i8 %5
}

; Function Attrs: mustprogress uwtable
define i32 @utrie_swapAnyVersion_77(ptr noundef %0, ptr noundef %1, i32 noundef %2, ptr noundef %3, ptr noundef %4) #0 {
  %6 = alloca i32, align 4
  %7 = alloca ptr, align 8
  %8 = alloca ptr, align 8
  %9 = alloca i32, align 4
  %10 = alloca ptr, align 8
  %11 = alloca ptr, align 8
  store ptr %0, ptr %7, align 8, !tbaa !3
  store ptr %1, ptr %8, align 8, !tbaa !8
  store i32 %2, ptr %9, align 4, !tbaa !9
  store ptr %3, ptr %10, align 8, !tbaa !8
  store ptr %4, ptr %11, align 8, !tbaa !8
  %12 = load ptr, ptr %11, align 8, !tbaa !8
  %13 = load i32, ptr %12, align 4, !tbaa !11
  %14 = call noundef signext i8 @_ZL9U_FAILURE10UErrorCode(i32 noundef %13)
  %15 = icmp ne i8 %14, 0
  br i1 %15, label %16, label %17

16:                                               ; preds = %5
  store i32 0, ptr %6, align 4
  br label %44

17:                                               ; preds = %5
  %18 = load ptr, ptr %8, align 8, !tbaa !8
  %19 = load i32, ptr %9, align 4, !tbaa !9
  %20 = call noundef i32 @_ZN12_GLOBAL__N_110getVersionEPKvia(ptr noundef %18, i32 noundef %19, i8 noundef signext 1)
  switch i32 %20, label %42 [
    i32 1, label %21
    i32 2, label %28
    i32 3, label %35
  ]

21:                                               ; preds = %17
  %22 = load ptr, ptr %7, align 8, !tbaa !3
  %23 = load ptr, ptr %8, align 8, !tbaa !8
  %24 = load i32, ptr %9, align 4, !tbaa !9
  %25 = load ptr, ptr %10, align 8, !tbaa !8
  %26 = load ptr, ptr %11, align 8, !tbaa !8
  %27 = call i32 @utrie_swap_77(ptr noundef %22, ptr noundef %23, i32 noundef %24, ptr noundef %25, ptr noundef %26)
  store i32 %27, ptr %6, align 4
  br label %44

28:                                               ; preds = %17
  %29 = load ptr, ptr %7, align 8, !tbaa !3
  %30 = load ptr, ptr %8, align 8, !tbaa !8
  %31 = load i32, ptr %9, align 4, !tbaa !9
  %32 = load ptr, ptr %10, align 8, !tbaa !8
  %33 = load ptr, ptr %11, align 8, !tbaa !8
  %34 = call i32 @utrie2_swap_77(ptr noundef %29, ptr noundef %30, i32 noundef %31, ptr noundef %32, ptr noundef %33)
  store i32 %34, ptr %6, align 4
  br label %44

35:                                               ; preds = %17
  %36 = load ptr, ptr %7, align 8, !tbaa !3
  %37 = load ptr, ptr %8, align 8, !tbaa !8
  %38 = load i32, ptr %9, align 4, !tbaa !9
  %39 = load ptr, ptr %10, align 8, !tbaa !8
  %40 = load ptr, ptr %11, align 8, !tbaa !8
  %41 = call i32 @ucptrie_swap_77(ptr noundef %36, ptr noundef %37, i32 noundef %38, ptr noundef %39, ptr noundef %40)
  store i32 %41, ptr %6, align 4
  br label %44

42:                                               ; preds = %17
  %43 = load ptr, ptr %11, align 8, !tbaa !8
  store i32 3, ptr %43, align 4, !tbaa !11
  store i32 0, ptr %6, align 4
  br label %44

44:                                               ; preds = %42, %35, %28, %21, %16
  %45 = load i32, ptr %6, align 4
  ret i32 %45
}