; Function Attrs: mustprogress uwtable
define i32 @utrie_swapAnyVersion_77(ptr noundef %0, ptr noundef %1, i32 noundef %2, ptr noundef %3, ptr noundef %4) local_unnamed_addr #0 {
  %6 = load i32, ptr %4, align 4, !tbaa !3
  %7 = icmp slt i32 %6, 1
  br i1 %7, label %8, label %21

8:                                                ; preds = %5
  %9 = icmp sgt i32 %2, 15
  %10 = icmp ne ptr %1, null
  %or.cond.not26.i = and i1 %10, %9
  %11 = ptrtoint ptr %1 to i64
  %12 = and i64 %11, 3
  %.not.i = icmp eq i64 %12, 0
  %or.cond23.i = and i1 %or.cond.not26.i, %.not.i
  br i1 %or.cond23.i, label %13, label %20

13:                                               ; preds = %8
  %14 = load i32, ptr %1, align 4, !tbaa !30
  switch i32 %14, label %20 [
    i32 1416784179, label %_ZN12_GLOBAL__N_110getVersionEPKvia.exit
    i32 862548564, label %_ZN12_GLOBAL__N_110getVersionEPKvia.exit
    i32 1416784178, label %17
    i32 845771348, label %17
    i32 1416784229, label %15
    i32 1701409364, label %15
  ]

15:                                               ; preds = %13, %13
  %16 = tail call i32 @utrie_swap_77(ptr noundef %0, ptr noundef nonnull %1, i32 noundef %2, ptr noundef %3, ptr noundef nonnull %4)
  br label %21

17:                                               ; preds = %13, %13
  %18 = tail call i32 @utrie2_swap_77(ptr noundef %0, ptr noundef nonnull %1, i32 noundef %2, ptr noundef %3, ptr noundef nonnull %4)
  br label %21

_ZN12_GLOBAL__N_110getVersionEPKvia.exit:         ; preds = %13, %13
  %19 = tail call i32 @ucptrie_swap_77(ptr noundef %0, ptr noundef nonnull %1, i32 noundef %2, ptr noundef %3, ptr noundef nonnull %4)
  br label %21

20:                                               ; preds = %13, %8
  store i32 3, ptr %4, align 4, !tbaa !3
  br label %21

21:                                               ; preds = %5, %20, %_ZN12_GLOBAL__N_110getVersionEPKvia.exit, %17, %15
  %.0 = phi i32 [ 0, %20 ], [ %19, %_ZN12_GLOBAL__N_110getVersionEPKvia.exit ], [ %18, %17 ], [ %16, %15 ], [ 0, %5 ]
  ret i32 %.0
}